target datalayout = "e-m:e-p270:32:32-p271:32:32-p272:64:64-i64:64-i128:128-f80:128-n8:16:32:64-S128"
target triple = "x86_64-pc-linux-gnu"

@OnigEncAsciiToLowerCaseTable = external constant [0 x i8], align 1

; Function Attrs: nounwind sspstrong uwtable
define internal i32 @mbc_enc_len(ptr noundef %0, ptr noundef %1, ptr noundef %2) #0 {
  %4 = alloca i32, align 4
  %5 = alloca ptr, align 8
  %6 = alloca ptr, align 8
  %7 = alloca ptr, align 8
  %8 = alloca i32, align 4
  %9 = alloca i32, align 4
  %10 = alloca i32, align 4
  store ptr %0, ptr %5, align 8, !tbaa !13
  store ptr %1, ptr %6, align 8, !tbaa !13
  store ptr %2, ptr %7, align 8, !tbaa !14
  call void @llvm.lifetime.start.p0(i64 4, ptr %8) #4
  %11 = load ptr, ptr %5, align 8, !tbaa !13
  %12 = getelementptr inbounds nuw i8, ptr %11, i32 1
  store ptr %12, ptr %5, align 8, !tbaa !13
  %13 = load i8, ptr %11, align 1, !tbaa !16
  %14 = zext i8 %13 to i32
  store i32 %14, ptr %8, align 4, !tbaa !17
  call void @llvm.lifetime.start.p0(i64 4, ptr %9) #4
  %15 = load i32, ptr %8, align 4, !tbaa !17
  %16 = sext i32 %15 to i64
  %17 = getelementptr inbounds [256 x i8], ptr @trans, i64 0, i64 %16
  %18 = load i8, ptr %17, align 1, !tbaa !16
  %19 = sext i8 %18 to i32
  store i32 %19, ptr %9, align 4, !tbaa !17
  %20 = load i32, ptr %9, align 4, !tbaa !17
  %21 = icmp slt i32 %20, 0
  br i1 %21, label %22, label %26

22:                                               ; preds = %3
  %23 = load i32, ptr %9, align 4, !tbaa !17
  %24 = icmp eq i32 %23, -1
  %25 = select i1 %24, i32 1, i32 -1
  store i32 %25, ptr %4, align 4
  store i32 1, ptr %10, align 4
  br label %51

26:                                               ; preds = %3
  %27 = load ptr, ptr %5, align 8, !tbaa !13
  %28 = load ptr, ptr %6, align 8, !tbaa !13
  %29 = icmp eq ptr %27, %28
  br i1 %29, label %30, label %37

30:                                               ; preds = %26
  %31 = load i32, ptr %8, align 4, !tbaa !17
  %32 = sext i32 %31 to i64
  %33 = getelementptr inbounds [256 x i32], ptr @EncLen_SJIS, i64 0, i64 %32
  %34 = load i32, ptr %33, align 4, !tbaa !17
  %35 = sub nsw i32 %34, 1
  %36 = sub nsw i32 -1, %35
  store i32 %36, ptr %4, align 4
  store i32 1, ptr %10, align 4
  br label %51

37:                                               ; preds = %26
  %38 = load i32, ptr %9, align 4, !tbaa !17
  %39 = sext i32 %38 to i64
  %40 = getelementptr inbounds [2 x [256 x i8]], ptr @trans, i64 0, i64 %39
  %41 = load ptr, ptr %5, align 8, !tbaa !13
  %42 = getelementptr inbounds nuw i8, ptr %41, i32 1
  store ptr %42, ptr %5, align 8, !tbaa !13
  %43 = load i8, ptr %41, align 1, !tbaa !16
  %44 = zext i8 %43 to i64
  %45 = getelementptr inbounds nuw [256 x i8], ptr %40, i64 0, i64 %44
  %46 = load i8, ptr %45, align 1, !tbaa !16
  %47 = sext i8 %46 to i32
  store i32 %47, ptr %9, align 4, !tbaa !17
  %48 = load i32, ptr %9, align 4, !tbaa !17
  %49 = icmp eq i32 %48, -1
  %50 = select i1 %49, i32 2, i32 -1
  store i32 %50, ptr %4, align 4
  store i32 1, ptr %10, align 4
  br label %51

51:                                               ; preds = %37, %30, %22
  call void @llvm.lifetime.end.p0(i64 4, ptr %9) #4
  call void @llvm.lifetime.end.p0(i64 4, ptr %8) #4
  %52 = load i32, ptr %4, align 4
  ret i32 %52
}

; Function Attrs: nounwind sspstrong uwtable
define internal i32 @code_to_mbc(i32 noundef %0, ptr noundef %1, ptr noundef %2) #0 {
  %4 = alloca i32, align 4
  %5 = alloca ptr, align 8
  %6 = alloca ptr, align 8
  %7 = alloca ptr, align 8
  store i32 %0, ptr %4, align 4, !tbaa !17
  store ptr %1, ptr %5, align 8, !tbaa !13
  store ptr %2, ptr %6, align 8, !tbaa !14
  call void @llvm.lifetime.start.p0(i64 8, ptr %7) #4
  %8 = load ptr, ptr %5, align 8, !tbaa !13
  store ptr %8, ptr %7, align 8, !tbaa !13
  %9 = load i32, ptr %4, align 4, !tbaa !17
  %10 = and i32 %9, 65280
  %11 = icmp ne i32 %10, 0
  br i1 %11, label %12, label %19

12:                                               ; preds = %3
  %13 = load i32, ptr %4, align 4, !tbaa !17
  %14 = lshr i32 %13, 8
  %15 = and i32 %14, 255
  %16 = trunc i32 %15 to i8
  %17 = load ptr, ptr %7, align 8, !tbaa !13
  %18 = getelementptr inbounds nuw i8, ptr %17, i32 1
  store ptr %18, ptr %7, align 8, !tbaa !13
  store i8 %16, ptr %17, align 1, !tbaa !16
  br label %19

19:                                               ; preds = %12, %3
  %20 = load i32, ptr %4, align 4, !tbaa !17
  %21 = and i32 %20, 255
  %22 = trunc i32 %21 to i8
  %23 = load ptr, ptr %7, align 8, !tbaa !13
  %24 = getelementptr inbounds nuw i8, ptr %23, i32 1
  store ptr %24, ptr %7, align 8, !tbaa !13
  store i8 %22, ptr %23, align 1, !tbaa !16
  %25 = load ptr, ptr %7, align 8, !tbaa !13
  %26 = load ptr, ptr %5, align 8, !tbaa !13
  %27 = ptrtoint ptr %25 to i64
  %28 = ptrtoint ptr %26 to i64
  %29 = sub i64 %27, %28
  %30 = trunc i64 %29 to i32
  call void @llvm.lifetime.end.p0(i64 8, ptr %7) #4
  ret i32 %30
}

; Function Attrs: nounwind sspstrong uwtable
define internal i32 @get_lower_case(i32 noundef %0) #0 {
  %2 = alloca i32, align 4
  %3 = alloca i32, align 4
  %4 = alloca i32, align 4
  store i32 %0, ptr %3, align 4, !tbaa !17
  %5 = load i32, ptr %3, align 4, !tbaa !17
  %6 = sub i32 %5, 33376
  %7 = icmp ule i32 %6, 25
  br i1 %7, label %8, label %11

8:                                                ; preds = %1
  %9 = load i32, ptr %3, align 4, !tbaa !17
  %10 = add i32 %9, 33
  store i32 %10, ptr %2, align 4
  br label %34

11:                                               ; preds = %1
  %12 = load i32, ptr %3, align 4, !tbaa !17
  %13 = sub i32 %12, 33695
  %14 = icmp ule i32 %13, 23
  br i1 %14, label %15, label %18

15:                                               ; preds = %11
  %16 = load i32, ptr %3, align 4, !tbaa !17
  %17 = add i32 %16, 32
  store i32 %17, ptr %2, align 4
  br label %34

18:                                               ; preds = %11
  %19 = load i32, ptr %3, align 4, !tbaa !17
  %20 = sub i32 %19, 33856
  %21 = icmp ule i32 %20, 32
  br i1 %21, label %22, label %30

22:                                               ; preds = %18
  call void @llvm.lifetime.start.p0(i64 4, ptr %4) #4
  %23 = load i32, ptr %3, align 4, !tbaa !17
  %24 = icmp uge i32 %23, 33871
  %25 = select i1 %24, i32 1, i32 0
  store i32 %25, ptr %4, align 4, !tbaa !17
  %26 = load i32, ptr %3, align 4, !tbaa !17
  %27 = load i32, ptr %4, align 4, !tbaa !17
  %28 = add nsw i32 48, %27
  %29 = add i32 %26, %28
  store i32 %29, ptr %2, align 4
  call void @llvm.lifetime.end.p0(i64 4, ptr %4) #4
  br label %34

30:                                               ; preds = %18
  br label %31

31:                                               ; preds = %30
  br label %32

32:                                               ; preds = %31
  %33 = load i32, ptr %3, align 4, !tbaa !17
  store i32 %33, ptr %2, align 4
  br label %34

34:                                               ; preds = %32, %22, %15, %8
  %35 = load i32, ptr %2, align 4
  ret i32 %35
}

; Function Attrs: nounwind sspstrong uwtable
define internal i32 @mbc_to_code(ptr noundef %0, ptr noundef %1, ptr noundef %2) #0 {
  %4 = alloca i32, align 4
  %5 = alloca ptr, align 8
  %6 = alloca ptr, align 8
  %7 = alloca ptr, align 8
  %8 = alloca i32, align 4
  %9 = alloca i32, align 4
  %10 = alloca i32, align 4
  %11 = alloca i32, align 4
  %12 = alloca i32, align 4
  store ptr %0, ptr %5, align 8, !tbaa !13
  store ptr %1, ptr %6, align 8, !tbaa !13
  store ptr %2, ptr %7, align 8, !tbaa !14
  call void @llvm.lifetime.start.p0(i64 4, ptr %8) #4
  call void @llvm.lifetime.start.p0(i64 4, ptr %9) #4
  call void @llvm.lifetime.start.p0(i64 4, ptr %10) #4
  call void @llvm.lifetime.start.p0(i64 4, ptr %11) #4
  %13 = load ptr, ptr %5, align 8, !tbaa !13
  %14 = load ptr, ptr %6, align 8, !tbaa !13
  %15 = load ptr, ptr %7, align 8, !tbaa !14
  %16 = call i32 @mbc_enc_len(ptr noundef %13, ptr noundef %14, ptr noundef %15)
  store i32 %16, ptr %10, align 4, !tbaa !17
  %17 = load ptr, ptr %5, align 8, !tbaa !13
  %18 = getelementptr inbounds nuw i8, ptr %17, i32 1
  store ptr %18, ptr %5, align 8, !tbaa !13
  %19 = load i8, ptr %17, align 1, !tbaa !16
  %20 = zext i8 %19 to i32
  store i32 %20, ptr %8, align 4, !tbaa !17
  %21 = load i32, ptr %8, align 4, !tbaa !17
  store i32 %21, ptr %11, align 4, !tbaa !17
  %22 = load i32, ptr %10, align 4, !tbaa !17
  %23 = icmp eq i32 %22, 1
  br i1 %23, label %24, label %26

24:                                               ; preds = %3
  %25 = load i32, ptr %11, align 4, !tbaa !17
  store i32 %25, ptr %4, align 4
  store i32 1, ptr %12, align 4
  br label %51

26:                                               ; preds = %3
  store i32 1, ptr %9, align 4, !tbaa !17
  br label %27

27:                                               ; preds = %46, %26
  %28 = load i32, ptr %9, align 4, !tbaa !17
  %29 = load i32, ptr %10, align 4, !tbaa !17
  %30 = icmp slt i32 %28, %29
  br i1 %30, label %31, label %49

31:                                               ; preds = %27
  %32 = load ptr, ptr %5, align 8, !tbaa !13
  %33 = load ptr, ptr %6, align 8, !tbaa !13
  %34 = icmp uge ptr %32, %33
  br i1 %34, label %35, label %36

35:                                               ; preds = %31
  br label %49

36:                                               ; preds = %31
  %37 = load ptr, ptr %5, align 8, !tbaa !13
  %38 = getelementptr inbounds nuw i8, ptr %37, i32 1
  store ptr %38, ptr %5, align 8, !tbaa !13
  %39 = load i8, ptr %37, align 1, !tbaa !16
  %40 = zext i8 %39 to i32
  store i32 %40, ptr %8, align 4, !tbaa !17
  %41 = load i32, ptr %11, align 4, !tbaa !17
  %42 = shl i32 %41, 8
  store i32 %42, ptr %11, align 4, !tbaa !17
  %43 = load i32, ptr %8, align 4, !tbaa !17
  %44 = load i32, ptr %11, align 4, !tbaa !17
  %45 = add i32 %44, %43
  store i32 %45, ptr %11, align 4, !tbaa !17
  br label %46

46:                                               ; preds = %36
  %47 = load i32, ptr %9, align 4, !tbaa !17
  %48 = add nsw i32 %47, 1
  store i32 %48, ptr %9, align 4, !tbaa !17
  br label %27, !llvm.loop !18

49:                                               ; preds = %35, %27
  %50 = load i32, ptr %11, align 4, !tbaa !17
  store i32 %50, ptr %4, align 4
  store i32 1, ptr %12, align 4
  br label %51

51:                                               ; preds = %49, %24
  call void @llvm.lifetime.end.p0(i64 4, ptr %11) #4
  call void @llvm.lifetime.end.p0(i64 4, ptr %10) #4
  call void @llvm.lifetime.end.p0(i64 4, ptr %9) #4
  call void @llvm.lifetime.end.p0(i64 4, ptr %8) #4
  %52 = load i32, ptr %4, align 4
  ret i32 %52
}

; Function Attrs: nounwind sspstrong uwtable
define internal i32 @mbc_case_fold(i32 noundef %0, ptr noundef %1, ptr noundef %2, ptr noundef %3, ptr noundef %4) #0 {
  %6 = alloca i32, align 4
  %7 = alloca i32, align 4
  %8 = alloca ptr, align 8
  %9 = alloca ptr, align 8
  %10 = alloca ptr, align 8
  %11 = alloca ptr, align 8
  %12 = alloca ptr, align 8
  %13 = alloca i32, align 4
  %14 = alloca i32, align 4
  %15 = alloca i32, align 4
  store i32 %0, ptr %7, align 4, !tbaa !17
  store ptr %1, ptr %8, align 8, !tbaa !20
  store ptr %2, ptr %9, align 8, !tbaa !13
  store ptr %3, ptr %10, align 8, !tbaa !13
  store ptr %4, ptr %11, align 8, !tbaa !14
  call void @llvm.lifetime.start.p0(i64 8, ptr %12) #4
  %16 = load ptr, ptr %8, align 8, !tbaa !20
  %17 = load ptr, ptr %16, align 8, !tbaa !13
  store ptr %17, ptr %12, align 8, !tbaa !13
  %18 = load ptr, ptr %12, align 8, !tbaa !13
  %19 = load i8, ptr %18, align 1, !tbaa !16
  %20 = zext i8 %19 to i32
  %21 = icmp slt i32 %20, 128
  br i1 %21, label %22, label %32

22:                                               ; preds = %5
  %23 = load ptr, ptr %12, align 8, !tbaa !13
  %24 = load i8, ptr %23, align 1, !tbaa !16
  %25 = zext i8 %24 to i64
  %26 = getelementptr inbounds nuw [0 x i8], ptr @OnigEncAsciiToLowerCaseTable, i64 0, i64 %25
  %27 = load i8, ptr %26, align 1, !tbaa !16
  %28 = load ptr, ptr %10, align 8, !tbaa !13
  store i8 %27, ptr %28, align 1, !tbaa !16
  %29 = load ptr, ptr %8, align 8, !tbaa !20
  %30 = load ptr, ptr %29, align 8, !tbaa !13
  %31 = getelementptr inbounds nuw i8, ptr %30, i32 1
  store ptr %31, ptr %29, align 8, !tbaa !13
  store i32 1, ptr %6, align 4
  store i32 1, ptr %13, align 4
  br label %48

32:                                               ; preds = %5
  call void @llvm.lifetime.start.p0(i64 4, ptr %14) #4
  call void @llvm.lifetime.start.p0(i64 4, ptr %15) #4
  %33 = load ptr, ptr %12, align 8, !tbaa !13
  %34 = load ptr, ptr %9, align 8, !tbaa !13
  %35 = load ptr, ptr %11, align 8, !tbaa !14
  %36 = call i32 @mbc_to_code(ptr noundef %33, ptr noundef %34, ptr noundef %35)
  %37 = call i32 @get_lower_case(i32 noundef %36)
  store i32 %37, ptr %14, align 4, !tbaa !17
  %38 = load i32, ptr %14, align 4, !tbaa !17
  %39 = load ptr, ptr %10, align 8, !tbaa !13
  %40 = load ptr, ptr %11, align 8, !tbaa !14
  %41 = call i32 @code_to_mbc(i32 noundef %38, ptr noundef %39, ptr noundef %40)
  store i32 %41, ptr %15, align 4, !tbaa !17
  %42 = load i32, ptr %15, align 4, !tbaa !17
  %43 = load ptr, ptr %8, align 8, !tbaa !20
  %44 = load ptr, ptr %43, align 8, !tbaa !13
  %45 = sext i32 %42 to i64
  %46 = getelementptr inbounds i8, ptr %44, i64 %45
  store ptr %46, ptr %43, align 8, !tbaa !13
  %47 = load i32, ptr %15, align 4, !tbaa !17
  store i32 %47, ptr %6, align 4
  store i32 1, ptr %13, align 4
  call void @llvm.lifetime.end.p0(i64 4, ptr %15) #4
  call void @llvm.lifetime.end.p0(i64 4, ptr %14) #4
  br label %48

48:                                               ; preds = %32, %22
  call void @llvm.lifetime.end.p0(i64 8, ptr %12) #4
  %49 = load i32, ptr %6, align 4
  ret i32 %49
}